; Function Attrs: mustprogress nounwind uwtable
define hidden void @_ZN14GenerateOopMap6do_jsrEi(ptr nocapture noundef nonnull align 8 dereferenceable(176) %0, i32 noundef %1) local_unnamed_addr #0 align 2 {
  %3 = getelementptr inbounds i8, ptr %0, i64 88
  %4 = load i32, ptr %3, align 8
  %5 = getelementptr inbounds i8, ptr %0, i64 36
  %6 = load i32, ptr %5, align 4
  %.not.i = icmp slt i32 %4, %6
  br i1 %.not.i, label %8, label %7

7:                                                ; preds = %2
  tail call void (ptr, ptr, ...) @_ZN14GenerateOopMap12report_errorEPKcz(ptr noundef nonnull align 8 dereferenceable(176) %0, ptr noundef nonnull @.str.78)
  br label %_ZN14GenerateOopMap4pushE13CellTypeState.exit

8:                                                ; preds = %2
  %9 = and i32 %1, 67108863
  %10 = or disjoint i32 %9, 335544320
  %11 = getelementptr inbounds i8, ptr %0, i64 72
  %12 = load ptr, ptr %11, align 8
  %13 = getelementptr inbounds i8, ptr %0, i64 32
  %14 = load i32, ptr %13, align 8
  %15 = sext i32 %14 to i64
  %16 = getelementptr inbounds %class.CellTypeState, ptr %12, i64 %15
  %17 = add nsw i32 %4, 1
  store i32 %17, ptr %3, align 8
  %18 = sext i32 %4 to i64
  %19 = getelementptr inbounds %class.CellTypeState, ptr %16, i64 %18
  store i32 %10, ptr %19, align 4
  br label %_ZN14GenerateOopMap4pushE13CellTypeState.exit

_ZN14GenerateOopMap4pushE13CellTypeState.exit:    ; preds = %7, %8
  ret void
}